target datalayout = "e-m:e-p270:32:32-p271:32:32-p272:64:64-i64:64-i128:128-f80:128-n8:16:32:64-S128"
target triple = "x86_64-pc-linux-gnu"

@hf_dplay_type_01_name_offset = internal global i32 0, align 4
@hf_dplay_type_01_game_name = internal global i32 0, align 4

; Function Attrs: null_pointer_is_valid sspstrong uwtable
define internal i32 @display_unicode_string(ptr noundef %0, i32 noundef %1, ptr noundef %2, i32 noundef %3) #0 {
  %5 = alloca ptr, align 8
  %6 = alloca i32, align 4
  %7 = alloca ptr, align 8
  %8 = alloca i32, align 4
  %9 = alloca ptr, align 8
  %10 = alloca i32, align 4
  store ptr %0, ptr %5, align 8
  store i32 %1, ptr %6, align 4
  store ptr %2, ptr %7, align 8
  store i32 %3, ptr %8, align 4
  call void @llvm.lifetime.start.p0(i64 8, ptr %9) #5
  call void @llvm.lifetime.start.p0(i64 4, ptr %10) #5
  %11 = call ptr @wmem_packet_scope()
  %12 = load ptr, ptr %7, align 8
  %13 = load i32, ptr %8, align 4
  %14 = call ptr @tvb_get_stringz_enc(ptr noundef %11, ptr noundef %12, i32 noundef %13, ptr noundef %10, i32 noundef -2147483644)
  store ptr %14, ptr %9, align 8
  %15 = load ptr, ptr %5, align 8
  %16 = load i32, ptr %6, align 4
  %17 = load ptr, ptr %7, align 8
  %18 = load i32, ptr %8, align 4
  %19 = load i32, ptr %10, align 4
  %20 = load ptr, ptr %9, align 8
  %21 = call ptr @proto_tree_add_string(ptr noundef %15, i32 noundef %16, ptr noundef %17, i32 noundef %18, i32 noundef %19, ptr noundef %20)
  %22 = load i32, ptr %8, align 4
  %23 = load i32, ptr %10, align 4
  %24 = add i32 %22, %23
  call void @llvm.lifetime.end.p0(i64 4, ptr %10) #5
  call void @llvm.lifetime.end.p0(i64 8, ptr %9) #5
  ret i32 %24
}

; Function Attrs: null_pointer_is_valid sspstrong uwtable
define internal i32 @dissect_type01_message(ptr noundef %0, ptr noundef %1, i32 noundef %2) #0 {
  %4 = alloca ptr, align 8
  %5 = alloca ptr, align 8
  %6 = alloca i32, align 4
  %7 = alloca i32, align 4
  store ptr %0, ptr %4, align 8
  store ptr %1, ptr %5, align 8
  store i32 %2, ptr %6, align 4
  call void @llvm.lifetime.start.p0(i64 4, ptr %7) #5
  %8 = load ptr, ptr %4, align 8
  %9 = load ptr, ptr %5, align 8
  %10 = load i32, ptr %6, align 4
  %11 = call i32 @dissect_session_desc(ptr noundef %8, ptr noundef %9, i32 noundef %10)
  store i32 %11, ptr %6, align 4
  %12 = load ptr, ptr %5, align 8
  %13 = load i32, ptr %6, align 4
  %14 = call i32 @tvb_get_letohl(ptr noundef %12, i32 noundef %13)
  store i32 %14, ptr %7, align 4
  %15 = load ptr, ptr %4, align 8
  %16 = load i32, ptr @hf_dplay_type_01_name_offset, align 4
  %17 = load ptr, ptr %5, align 8
  %18 = load i32, ptr %6, align 4
  %19 = call ptr @proto_tree_add_item(ptr noundef %15, i32 noundef %16, ptr noundef %17, i32 noundef %18, i32 noundef 4, i32 noundef -2147483648)
  %20 = load i32, ptr %6, align 4
  %21 = add i32 %20, 4
  store i32 %21, ptr %6, align 4
  %22 = load i32, ptr %7, align 4
  %23 = icmp ne i32 %22, 0
  br i1 %23, label %24, label %30

24:                                               ; preds = %3
  %25 = load ptr, ptr %4, align 8
  %26 = load i32, ptr @hf_dplay_type_01_game_name, align 4
  %27 = load ptr, ptr %5, align 8
  %28 = load i32, ptr %6, align 4
  %29 = call i32 @display_unicode_string(ptr noundef %25, i32 noundef %26, ptr noundef %27, i32 noundef %28)
  store i32 %29, ptr %6, align 4
  br label %30

30:                                               ; preds = %24, %3
  %31 = load i32, ptr %6, align 4
  call void @llvm.lifetime.end.p0(i64 4, ptr %7) #5
  ret i32 %31
}