; Function Attrs: null_pointer_is_valid sspstrong uwtable
define internal fastcc void @dissect_type01_message(ptr noundef %0, ptr noundef %1) unnamed_addr #0 {
  %3 = alloca i32, align 4
  %4 = tail call fastcc i32 @dissect_session_desc(ptr noundef %0, ptr noundef %1, i32 noundef 28)
  %5 = tail call i32 @tvb_get_letohl(ptr noundef %1, i32 noundef %4)
  %6 = load i32, ptr @hf_dplay_type_01_name_offset, align 4
  %7 = tail call ptr @proto_tree_add_item(ptr noundef %0, i32 noundef %6, ptr noundef %1, i32 noundef %4, i32 noundef 4, i32 noundef -2147483648)
  %.not = icmp eq i32 %5, 0
  br i1 %.not, label %15, label %8

8:                                                ; preds = %2
  %9 = add nuw nsw i32 %4, 4
  %10 = load i32, ptr @hf_dplay_type_01_game_name, align 4
  call void @llvm.lifetime.start.p0(i64 4, ptr nonnull %3) #3
  %11 = tail call ptr @wmem_packet_scope()
  %12 = call ptr @tvb_get_stringz_enc(ptr noundef %11, ptr noundef %1, i32 noundef %9, ptr noundef nonnull %3, i32 noundef -2147483644)
  %13 = load i32, ptr %3, align 4
  %14 = call ptr @proto_tree_add_string(ptr noundef %0, i32 noundef %10, ptr noundef %1, i32 noundef %9, i32 noundef %13, ptr noundef %12)
  call void @llvm.lifetime.end.p0(i64 4, ptr nonnull %3) #3
  br label %15

15:                                               ; preds = %8, %2
  ret void
}